; Function Attrs: mustprogress nofree norecurse nosync nounwind willreturn memory(argmem: readwrite) uwtable
define void @_Z6DividePKdS0_Pd(ptr noundef readonly captures(none) %0, ptr noundef readonly captures(none) %1, ptr noundef writeonly captures(none) initializes((0, 16)) %2) local_unnamed_addr #5 {
  %4 = load double, ptr %1, align 8
  %5 = getelementptr inbounds nuw i8, ptr %1, i64 8
  %6 = load double, ptr %5, align 8
  %7 = fmul double %6, %6
  %8 = tail call double @llvm.fmuladd.f64(double %4, double %4, double %7)
  %9 = fdiv double %4, %8
  %10 = fneg double %6
  %11 = fdiv double %10, %8
  %12 = load double, ptr %0, align 8
  %13 = getelementptr inbounds nuw i8, ptr %0, i64 8
  %14 = load double, ptr %13, align 8
  %15 = fneg double %11
  %16 = fmul double %14, %15
  %17 = tail call double @llvm.fmuladd.f64(double %12, double %9, double %16)
  store double %17, ptr %2, align 8
  %18 = load double, ptr %0, align 8
  %19 = load double, ptr %13, align 8
  %20 = fmul double %9, %19
  %21 = tail call double @llvm.fmuladd.f64(double %18, double %11, double %20)
  %22 = getelementptr inbounds nuw i8, ptr %2, i64 8
  store double %21, ptr %22, align 8
  ret void
}